target datalayout = "e-m:e-p270:32:32-p271:32:32-p272:64:64-i64:64-i128:128-f80:128-n8:16:32:64-S128"
target triple = "x86_64-pc-linux-gnu"

@stdout = external global ptr, align 8
@.str = private unnamed_addr constant [2 x i8] c"\0A\00", align 1
@.str.2 = private unnamed_addr constant [11 x i8] c"%d : %d : \00", align 1
@.str.3 = private unnamed_addr constant [5 x i8] c"%3d \00", align 1
@.str.4 = private unnamed_addr constant [5 x i8] c"    \00", align 1
@.str.5 = private unnamed_addr constant [3 x i8] c"0x\00", align 1
@.str.15 = private unnamed_addr constant [3 x i8] c"%c\00", align 1

; Function Attrs: inlinehint nounwind uwtable
define internal i32 @Abc_TtWordNum(i32 noundef %0) #3 {
  %2 = alloca i32, align 4
  store i32 %0, ptr %2, align 4, !tbaa !3
  %3 = load i32, ptr %2, align 4, !tbaa !3
  %4 = icmp sle i32 %3, 6
  br i1 %4, label %5, label %6

5:                                                ; preds = %1
  br label %10

6:                                                ; preds = %1
  %7 = load i32, ptr %2, align 4, !tbaa !3
  %8 = sub nsw i32 %7, 6
  %9 = shl i32 1, %8
  br label %10

10:                                               ; preds = %6, %5
  %11 = phi i32 [ 1, %5 ], [ %9, %6 ]
  ret i32 %11
}

; Function Attrs: inlinehint nounwind uwtable
define internal signext i8 @Abc_TtPrintDigit(i32 noundef %0) #3 {
  %2 = alloca i8, align 1
  %3 = alloca i32, align 4
  store i32 %0, ptr %3, align 4, !tbaa !3
  %4 = load i32, ptr %3, align 4, !tbaa !3
  %5 = icmp slt i32 %4, 10
  br i1 %5, label %6, label %10

6:                                                ; preds = %1
  %7 = load i32, ptr %3, align 4, !tbaa !3
  %8 = add nsw i32 48, %7
  %9 = trunc i32 %8 to i8
  store i8 %9, ptr %2, align 1
  br label %15

10:                                               ; preds = %1
  %11 = load i32, ptr %3, align 4, !tbaa !3
  %12 = add nsw i32 65, %11
  %13 = sub nsw i32 %12, 10
  %14 = trunc i32 %13 to i8
  store i8 %14, ptr %2, align 1
  br label %15

15:                                               ; preds = %10, %6
  %16 = load i8, ptr %2, align 1
  ret i8 %16
}

; Function Attrs: inlinehint nounwind uwtable
define internal void @Abc_TtPrintHexRev(ptr noundef %0, ptr noundef %1, i32 noundef %2) #3 {
  %4 = alloca ptr, align 8
  %5 = alloca ptr, align 8
  %6 = alloca i32, align 4
  %7 = alloca ptr, align 8
  %8 = alloca i32, align 4
  %9 = alloca i32, align 4
  store ptr %0, ptr %4, align 8, !tbaa !9
  store ptr %1, ptr %5, align 8, !tbaa !15
  store i32 %2, ptr %6, align 4, !tbaa !3
  call void @llvm.lifetime.start.p0(i64 8, ptr %7) #12
  call void @llvm.lifetime.start.p0(i64 4, ptr %8) #12
  call void @llvm.lifetime.start.p0(i64 4, ptr %9) #12
  %10 = load i32, ptr %6, align 4, !tbaa !3
  %11 = icmp sge i32 %10, 6
  br i1 %11, label %12, label %13

12:                                               ; preds = %3
  br label %17

13:                                               ; preds = %3
  %14 = load i32, ptr %6, align 4, !tbaa !3
  %15 = sub nsw i32 %14, 2
  %16 = shl i32 1, %15
  br label %17

17:                                               ; preds = %13, %12
  %18 = phi i32 [ 16, %12 ], [ %16, %13 ]
  store i32 %18, ptr %9, align 4, !tbaa !3
  %19 = load i32, ptr %6, align 4, !tbaa !3
  %20 = icmp slt i32 %19, 2
  br i1 %20, label %21, label %31

21:                                               ; preds = %17
  %22 = load ptr, ptr %4, align 8, !tbaa !9
  %23 = load ptr, ptr %5, align 8, !tbaa !15
  %24 = getelementptr inbounds i64, ptr %23, i64 0
  %25 = load i64, ptr %24, align 8, !tbaa !7
  %26 = trunc i64 %25 to i32
  %27 = and i32 %26, 15
  %28 = call signext i8 @Abc_TtPrintDigit(i32 noundef %27)
  %29 = sext i8 %28 to i32
  %30 = call i32 (ptr, ptr, ...) @fprintf(ptr noundef %22, ptr noundef @.str.15, i32 noundef %29) #12
  br label %70

31:                                               ; preds = %17
  %32 = load ptr, ptr %5, align 8, !tbaa !15
  %33 = load i32, ptr %6, align 4, !tbaa !3
  %34 = call i32 @Abc_TtWordNum(i32 noundef %33)
  %35 = sext i32 %34 to i64
  %36 = getelementptr inbounds i64, ptr %32, i64 %35
  %37 = getelementptr inbounds i64, ptr %36, i64 -1
  store ptr %37, ptr %7, align 8, !tbaa !15
  br label %38

38:                                               ; preds = %66, %31
  %39 = load ptr, ptr %7, align 8, !tbaa !15
  %40 = load ptr, ptr %5, align 8, !tbaa !15
  %41 = icmp uge ptr %39, %40
  br i1 %41, label %42, label %69

42:                                               ; preds = %38
  %43 = load i32, ptr %9, align 4, !tbaa !3
  %44 = sub nsw i32 %43, 1
  store i32 %44, ptr %8, align 4, !tbaa !3
  br label %45

45:                                               ; preds = %62, %42
  %46 = load i32, ptr %8, align 4, !tbaa !3
  %47 = icmp sge i32 %46, 0
  br i1 %47, label %48, label %65

48:                                               ; preds = %45
  %49 = load ptr, ptr %4, align 8, !tbaa !9
  %50 = load ptr, ptr %7, align 8, !tbaa !15
  %51 = getelementptr inbounds i64, ptr %50, i64 0
  %52 = load i64, ptr %51, align 8, !tbaa !7
  %53 = load i32, ptr %8, align 4, !tbaa !3
  %54 = shl i32 %53, 2
  %55 = zext i32 %54 to i64
  %56 = lshr i64 %52, %55
  %57 = trunc i64 %56 to i32
  %58 = and i32 %57, 15
  %59 = call signext i8 @Abc_TtPrintDigit(i32 noundef %58)
  %60 = sext i8 %59 to i32
  %61 = call i32 (ptr, ptr, ...) @fprintf(ptr noundef %49, ptr noundef @.str.15, i32 noundef %60) #12
  br label %62

62:                                               ; preds = %48
  %63 = load i32, ptr %8, align 4, !tbaa !3
  %64 = add nsw i32 %63, -1
  store i32 %64, ptr %8, align 4, !tbaa !3
  br label %45, !llvm.loop !17

65:                                               ; preds = %45
  br label %66

66:                                               ; preds = %65
  %67 = load ptr, ptr %7, align 8, !tbaa !15
  %68 = getelementptr inbounds i64, ptr %67, i32 -1
  store ptr %68, ptr %7, align 8, !tbaa !15
  br label %38, !llvm.loop !18

69:                                               ; preds = %38
  br label %70

70:                                               ; preds = %69, %21
  call void @llvm.lifetime.end.p0(i64 4, ptr %9) #12
  call void @llvm.lifetime.end.p0(i64 4, ptr %8) #12
  call void @llvm.lifetime.end.p0(i64 8, ptr %7) #12
  ret void
}

; Function Attrs: nounwind uwtable
define void @Ree_ManCutPrint(ptr noundef %0, i32 noundef %1, i64 noundef %2, i32 noundef %3) #0 {
  %5 = alloca ptr, align 8
  %6 = alloca i32, align 4
  %7 = alloca i64, align 8
  %8 = alloca i32, align 4
  %9 = alloca i32, align 4
  store ptr %0, ptr %5, align 8, !tbaa !21
  store i32 %1, ptr %6, align 4, !tbaa !3
  store i64 %2, ptr %7, align 8, !tbaa !7
  store i32 %3, ptr %8, align 4, !tbaa !3
  call void @llvm.lifetime.start.p0(i64 4, ptr %9) #12
  %10 = load i32, ptr %6, align 4, !tbaa !3
  %11 = load i32, ptr %8, align 4, !tbaa !3
  %12 = call i32 (ptr, ...) @printf(ptr noundef @.str.2, i32 noundef %10, i32 noundef %11)
  store i32 1, ptr %9, align 4, !tbaa !3
  br label %13

13:                                               ; preds = %26, %4
  %14 = load i32, ptr %9, align 4, !tbaa !3
  %15 = load ptr, ptr %5, align 8, !tbaa !21
  %16 = getelementptr inbounds i32, ptr %15, i64 0
  %17 = load i32, ptr %16, align 4, !tbaa !3
  %18 = icmp sle i32 %14, %17
  br i1 %18, label %19, label %29

19:                                               ; preds = %13
  %20 = load ptr, ptr %5, align 8, !tbaa !21
  %21 = load i32, ptr %9, align 4, !tbaa !3
  %22 = sext i32 %21 to i64
  %23 = getelementptr inbounds i32, ptr %20, i64 %22
  %24 = load i32, ptr %23, align 4, !tbaa !3
  %25 = call i32 (ptr, ...) @printf(ptr noundef @.str.3, i32 noundef %24)
  br label %26

26:                                               ; preds = %19
  %27 = load i32, ptr %9, align 4, !tbaa !3
  %28 = add nsw i32 %27, 1
  store i32 %28, ptr %9, align 4, !tbaa !3
  br label %13, !llvm.loop !23

29:                                               ; preds = %13
  br label %30

30:                                               ; preds = %35, %29
  %31 = load i32, ptr %9, align 4, !tbaa !3
  %32 = icmp sle i32 %31, 4
  br i1 %32, label %33, label %38

33:                                               ; preds = %30
  %34 = call i32 (ptr, ...) @printf(ptr noundef @.str.4)
  br label %35

35:                                               ; preds = %33
  %36 = load i32, ptr %9, align 4, !tbaa !3
  %37 = add nsw i32 %36, 1
  store i32 %37, ptr %9, align 4, !tbaa !3
  br label %30, !llvm.loop !24

38:                                               ; preds = %30
  %39 = call i32 (ptr, ...) @printf(ptr noundef @.str.5)
  %40 = load ptr, ptr @stdout, align 8, !tbaa !9
  call void @Abc_TtPrintHexRev(ptr noundef %40, ptr noundef %7, i32 noundef 3)
  %41 = call i32 (ptr, ...) @printf(ptr noundef @.str)
  call void @llvm.lifetime.end.p0(i64 4, ptr %9) #12
  ret void
}