; Function Attrs: nofree nounwind uwtable
define void @Ree_ManCutPrint(ptr noundef readonly captures(none) %0, i32 noundef %1, i64 noundef %2, i32 noundef %3) local_unnamed_addr #0 {
  %5 = alloca i64, align 8
  store i64 %2, ptr %5, align 8, !tbaa !3
  %6 = tail call i32 (ptr, ...) @printf(ptr noundef nonnull dereferenceable(1) @.str.2, i32 noundef %1, i32 noundef %3)
  %7 = load i32, ptr %0, align 4, !tbaa !17
  %.not8 = icmp slt i32 %7, 1
  br i1 %.not8, label %.lr.ph11.preheader, label %.lr.ph

.preheader:                                       ; preds = %.lr.ph
  %8 = trunc nuw i64 %indvars.iv.next to i32
  %9 = icmp samesign ult i64 %indvars.iv, 4
  br i1 %9, label %.lr.ph11.preheader, label %._crit_edge

.lr.ph11.preheader:                               ; preds = %4, %.preheader
  %.110.ph = phi i32 [ 1, %4 ], [ %8, %.preheader ]
  br label %.lr.ph11

.lr.ph:                                           ; preds = %4, %.lr.ph
  %indvars.iv = phi i64 [ %indvars.iv.next, %.lr.ph ], [ 1, %4 ]
  %10 = getelementptr inbounds nuw i32, ptr %0, i64 %indvars.iv
  %11 = load i32, ptr %10, align 4, !tbaa !17
  %12 = tail call i32 (ptr, ...) @printf(ptr noundef nonnull dereferenceable(1) @.str.3, i32 noundef %11)
  %indvars.iv.next = add nuw nsw i64 %indvars.iv, 1
  %13 = load i32, ptr %0, align 4, !tbaa !17
  %14 = sext i32 %13 to i64
  %.not.not = icmp slt i64 %indvars.iv, %14
  br i1 %.not.not, label %.lr.ph, label %.preheader, !llvm.loop !19

.lr.ph11:                                         ; preds = %.lr.ph11.preheader, %.lr.ph11
  %.110 = phi i32 [ %16, %.lr.ph11 ], [ %.110.ph, %.lr.ph11.preheader ]
  %15 = tail call i32 (ptr, ...) @printf(ptr noundef nonnull dereferenceable(1) @.str.4)
  %16 = add nuw i32 %.110, 1
  %exitcond.not = icmp eq i32 %16, 5
  br i1 %exitcond.not, label %._crit_edge, label %.lr.ph11, !llvm.loop !20

._crit_edge:                                      ; preds = %.lr.ph11, %.preheader
  %17 = tail call i32 (ptr, ...) @printf(ptr noundef nonnull dereferenceable(1) @.str.5)
  %18 = load ptr, ptr @stdout, align 8, !tbaa !7
  br label %.preheader.i

.preheader.i:                                     ; preds = %28, %._crit_edge
  %.018.i = phi ptr [ %5, %._crit_edge ], [ %29, %28 ]
  br label %19

19:                                               ; preds = %19, %.preheader.i
  %indvars.iv.i = phi i64 [ 1, %.preheader.i ], [ %indvars.iv.next.i, %19 ]
  %20 = load i64, ptr %.018.i, align 8, !tbaa !3
  %21 = shl nuw nsw i64 %indvars.iv.i, 2
  %22 = lshr i64 %20, %21
  %23 = trunc i64 %22 to i32
  %24 = and i32 %23, 15
  %25 = icmp samesign ult i32 %24, 10
  %26 = or disjoint i32 %24, 48
  %27 = add nuw nsw i32 %24, 55
  %.0.i.i = select i1 %25, i32 %26, i32 %27
  %fputc.i = call i32 @fputc(i32 %.0.i.i, ptr %18)
  %indvars.iv.next.i = add nsw i64 %indvars.iv.i, -1
  %.not20.i = icmp eq i64 %indvars.iv.i, 0
  br i1 %.not20.i, label %28, label %19, !llvm.loop !10

28:                                               ; preds = %19
  %29 = getelementptr inbounds i8, ptr %.018.i, i64 -8
  %.not.i = icmp ult ptr %29, %5
  br i1 %.not.i, label %Abc_TtPrintHexRev.exit, label %.preheader.i, !llvm.loop !12

Abc_TtPrintHexRev.exit:                           ; preds = %28
  %putchar = call i32 @putchar(i32 10)
  ret void
}